target datalayout = "e-m:e-p270:32:32-p271:32:32-p272:64:64-i64:64-i128:128-f80:128-n8:16:32:64-S128"
target triple = "x86_64-pc-linux-gnu"

%"struct.Gluco::Solver::WatcherDeleted" = type { ptr }
%"struct.Gluco::Solver::VarOrderLt" = type { ptr }
%"class.Gluco::Solver" = type { ptr, i32, ptr, ptr, i32, i8, ptr, i64, %"class.Gluco::vec", %"class.Gluco::vec.0", i32, %"class.Gluco::vec.1", %"class.Gluco::vec.0", i32, i32, i32, double, double, double, double, i32, i32, i32, i32, i32, i32, double, double, double, double, i32, i32, i8, i8, double, ptr, i8, i64, i64, i64, i64, i64, i64, i64, i64, i64, i64, i64, i64, i64, i64, i64, i64, i64, i64, i64, i64, i64, i64, i32, i8, double, %"class.Gluco::vec.2", double, %"class.Gluco::OccLists", %"class.Gluco::OccLists", %"class.Gluco::vec.5", %"class.Gluco::vec.5", %"class.Gluco::vec.1", %"class.Gluco::vec.4", %"class.Gluco::vec.4", %"class.Gluco::vec.0", %"class.Gluco::vec", %"class.Gluco::vec", %"class.Gluco::vec.6", i32, i32, i64, %"class.Gluco::vec.0", %"class.Gluco::Heap", double, i8, %"class.Gluco::vec.5", %"class.Gluco::vec.0", %"class.Gluco::ClauseAllocator", i32, %"class.Gluco::bqueue", %"class.Gluco::bqueue", float, i32, %"class.Gluco::vec.4", %"class.Gluco::vec.0", %"class.Gluco::vec.0", %"class.Gluco::vec.0", i32, double, double, i32, i64, i64, i8, i32, i32, double, double, i32, i32, %"class.Gluco::vec", %"class.Gluco::vec" }
%"class.Gluco::vec.2" = type { ptr, i32, i32 }
%"class.Gluco::OccLists" = type { %"class.Gluco::vec.3", %"class.Gluco::vec.4", %"class.Gluco::vec.0", %"struct.Gluco::Solver::WatcherDeleted" }
%"class.Gluco::vec.3" = type { ptr, i32, i32 }
%"class.Gluco::vec.1" = type { ptr, i32, i32 }
%"class.Gluco::vec.6" = type { ptr, i32, i32 }
%"class.Gluco::Heap" = type { %"struct.Gluco::Solver::VarOrderLt", %"class.Gluco::vec", %"class.Gluco::vec" }
%"class.Gluco::vec.5" = type { ptr, i32, i32 }
%"class.Gluco::ClauseAllocator" = type { %"class.Gluco::RegionAllocator.base", i8, [3 x i8] }
%"class.Gluco::RegionAllocator.base" = type <{ ptr, i32, i32, i32 }>
%"class.Gluco::bqueue" = type { %"class.Gluco::vec.5", i32, i32, i64, i32, i32, i8, double, double }
%"class.Gluco::vec.4" = type { ptr, i32, i32 }
%"class.Gluco::vec.0" = type { ptr, i32, i32 }
%"class.Gluco::vec" = type { ptr, i32, i32 }
%"class.Gluco::RegionAllocator" = type <{ ptr, i32, i32, i32, [4 x i8] }>

; Function Attrs: mustprogress nounwind uwtable
define linkonce_odr noundef i32 @_ZNK5Gluco15RegionAllocatorIjE4sizeEv(ptr noundef nonnull align 8 dereferenceable(20) %0) #2 comdat align 2 {
  %2 = alloca ptr, align 8
  store ptr %0, ptr %2, align 8
  %3 = load ptr, ptr %2, align 8
  %4 = getelementptr inbounds %"class.Gluco::RegionAllocator", ptr %3, i32 0, i32 1
  %5 = load i32, ptr %4, align 8
  ret i32 %5
}

; Function Attrs: mustprogress nounwind uwtable
define linkonce_odr noundef i32 @_ZNK5Gluco15RegionAllocatorIjE6wastedEv(ptr noundef nonnull align 8 dereferenceable(20) %0) #2 comdat align 2 {
  %2 = alloca ptr, align 8
  store ptr %0, ptr %2, align 8
  %3 = load ptr, ptr %2, align 8
  %4 = getelementptr inbounds %"class.Gluco::RegionAllocator", ptr %3, i32 0, i32 3
  %5 = load i32, ptr %4, align 8
  ret i32 %5
}

; Function Attrs: mustprogress uwtable
define linkonce_odr void @_ZN5Gluco6Solver12checkGarbageEd(ptr noundef nonnull align 8 dereferenceable(1216) %0, double noundef %1) #1 comdat align 2 {
  %3 = alloca ptr, align 8
  %4 = alloca double, align 8
  store ptr %0, ptr %3, align 8
  store double %1, ptr %4, align 8
  %5 = load ptr, ptr %3, align 8
  %6 = getelementptr inbounds %"class.Gluco::Solver", ptr %5, i32 0, i32 84
  %7 = call noundef i32 @_ZNK5Gluco15RegionAllocatorIjE6wastedEv(ptr noundef nonnull align 8 dereferenceable(20) %6)
  %8 = uitofp i32 %7 to double
  %9 = getelementptr inbounds %"class.Gluco::Solver", ptr %5, i32 0, i32 84
  %10 = call noundef i32 @_ZNK5Gluco15RegionAllocatorIjE4sizeEv(ptr noundef nonnull align 8 dereferenceable(20) %9)
  %11 = uitofp i32 %10 to double
  %12 = load double, ptr %4, align 8
  %13 = fmul double %11, %12
  %14 = fcmp ogt double %8, %13
  br i1 %14, label %15, label %19

15:                                               ; preds = %2
  %16 = load ptr, ptr %5, align 8
  %17 = getelementptr inbounds ptr, ptr %16, i64 3
  %18 = load ptr, ptr %17, align 8
  call void %18(ptr noundef nonnull align 8 dereferenceable(1216) %5)
  br label %19

19:                                               ; preds = %15, %2
  ret void
}

; Function Attrs: mustprogress nounwind uwtable
define linkonce_odr noundef i32 @_ZNK5Gluco3vecINS_3LitEE4sizeEv(ptr noundef nonnull align 8 dereferenceable(16) %0) #2 comdat align 2 {
  %2 = alloca ptr, align 8
  store ptr %0, ptr %2, align 8
  %3 = load ptr, ptr %2, align 8
  %4 = getelementptr inbounds %"class.Gluco::vec.0", ptr %3, i32 0, i32 1
  %5 = load i32, ptr %4, align 8
  ret i32 %5
}

; Function Attrs: mustprogress uwtable
define linkonce_odr void @_ZN5Gluco6Solver12checkGarbageEv(ptr noundef nonnull align 8 dereferenceable(1216) %0) #1 comdat align 2 {
  %2 = alloca ptr, align 8
  store ptr %0, ptr %2, align 8
  %3 = load ptr, ptr %2, align 8
  %4 = getelementptr inbounds %"class.Gluco::Solver", ptr %3, i32 0, i32 34
  %5 = load double, ptr %4, align 8
  call void @_ZN5Gluco6Solver12checkGarbageEd(ptr noundef nonnull align 8 dereferenceable(1216) %3, double noundef %5)
  ret void
}

; Function Attrs: mustprogress uwtable
define linkonce_odr noundef i32 @_ZNK5Gluco6Solver8nAssignsEv(ptr noundef nonnull align 8 dereferenceable(1216) %0) #1 comdat align 2 {
  %2 = alloca ptr, align 8
  store ptr %0, ptr %2, align 8
  %3 = load ptr, ptr %2, align 8
  %4 = getelementptr inbounds %"class.Gluco::Solver", ptr %3, i32 0, i32 71
  %5 = call noundef i32 @_ZNK5Gluco3vecINS_3LitEE4sizeEv(ptr noundef nonnull align 8 dereferenceable(16) %4)
  ret i32 %5
}

; Function Attrs: mustprogress uwtable
define noundef zeroext i1 @_ZN5Gluco6Solver8simplifyEv(ptr noundef nonnull align 8 dereferenceable(1216) %0) #1 align 2 {
  %2 = alloca i1, align 1
  %3 = alloca ptr, align 8
  store ptr %0, ptr %3, align 8
  %4 = load ptr, ptr %3, align 8
  %5 = getelementptr inbounds %"class.Gluco::Solver", ptr %4, i32 0, i32 60
  %6 = load i8, ptr %5, align 4
  %7 = trunc i8 %6 to i1
  br i1 %7, label %8, label %11

8:                                                ; preds = %1
  %9 = call noundef i32 @_ZN5Gluco6Solver9propagateEv(ptr noundef nonnull align 8 dereferenceable(1216) %4)
  %10 = icmp ne i32 %9, -1
  br i1 %10, label %11, label %13

11:                                               ; preds = %8, %1
  %12 = getelementptr inbounds %"class.Gluco::Solver", ptr %4, i32 0, i32 60
  store i8 0, ptr %12, align 4
  store i1 false, ptr %2, align 1
  br label %39

13:                                               ; preds = %8
  %14 = call noundef i32 @_ZNK5Gluco6Solver8nAssignsEv(ptr noundef nonnull align 8 dereferenceable(1216) %4)
  %15 = getelementptr inbounds %"class.Gluco::Solver", ptr %4, i32 0, i32 76
  %16 = load i32, ptr %15, align 4
  %17 = icmp eq i32 %14, %16
  br i1 %17, label %22, label %18

18:                                               ; preds = %13
  %19 = getelementptr inbounds %"class.Gluco::Solver", ptr %4, i32 0, i32 77
  %20 = load i64, ptr %19, align 8
  %21 = icmp sgt i64 %20, 0
  br i1 %21, label %22, label %23

22:                                               ; preds = %18, %13
  store i1 true, ptr %2, align 1
  br label %39

23:                                               ; preds = %18
  %24 = getelementptr inbounds %"class.Gluco::Solver", ptr %4, i32 0, i32 67
  call void @_ZN5Gluco6Solver15removeSatisfiedERNS_3vecIjEE(ptr noundef nonnull align 8 dereferenceable(1216) %4, ptr noundef nonnull align 8 dereferenceable(16) %24)
  %25 = getelementptr inbounds %"class.Gluco::Solver", ptr %4, i32 0, i32 81
  %26 = load i8, ptr %25, align 8
  %27 = trunc i8 %26 to i1
  br i1 %27, label %28, label %30

28:                                               ; preds = %23
  %29 = getelementptr inbounds %"class.Gluco::Solver", ptr %4, i32 0, i32 66
  call void @_ZN5Gluco6Solver15removeSatisfiedERNS_3vecIjEE(ptr noundef nonnull align 8 dereferenceable(1216) %4, ptr noundef nonnull align 8 dereferenceable(16) %29)
  br label %30

30:                                               ; preds = %28, %23
  call void @_ZN5Gluco6Solver12checkGarbageEv(ptr noundef nonnull align 8 dereferenceable(1216) %4)
  call void @_ZN5Gluco6Solver16rebuildOrderHeapEv(ptr noundef nonnull align 8 dereferenceable(1216) %4)
  %31 = call noundef i32 @_ZNK5Gluco6Solver8nAssignsEv(ptr noundef nonnull align 8 dereferenceable(1216) %4)
  %32 = getelementptr inbounds %"class.Gluco::Solver", ptr %4, i32 0, i32 76
  store i32 %31, ptr %32, align 4
  %33 = getelementptr inbounds %"class.Gluco::Solver", ptr %4, i32 0, i32 54
  %34 = load i64, ptr %33, align 8
  %35 = getelementptr inbounds %"class.Gluco::Solver", ptr %4, i32 0, i32 55
  %36 = load i64, ptr %35, align 8
  %37 = add nsw i64 %34, %36
  %38 = getelementptr inbounds %"class.Gluco::Solver", ptr %4, i32 0, i32 77
  store i64 %37, ptr %38, align 8
  store i1 true, ptr %2, align 1
  br label %39

39:                                               ; preds = %30, %22, %11
  %40 = load i1, ptr %2, align 1
  ret i1 %40
}